target datalayout = "e-m:e-p270:32:32-p271:32:32-p272:64:64-i64:64-i128:128-f80:128-n8:16:32:64-S128"
target triple = "x86_64-pc-linux-gnu"

%struct._object = type { %union.anon, ptr }
%union.anon = type { i64 }
%struct.HandlerInfo = type { ptr, ptr, ptr, %struct.PyGetSetDef }
%struct.PyGetSetDef = type { ptr, ptr, ptr, ptr, ptr }
%struct.xmlparseobject = type { %struct._object, ptr, i32, i32, i32, i32, ptr, i32, i32, i8, ptr, ptr }
%struct.anon = type { i32, i32 }

@.str.43 = private unnamed_addr constant [29 x i8] c"../cpython/Modules/pyexpat.c\00", align 1
@.str.56 = private unnamed_addr constant [3 x i8] c"()\00", align 1
@.str.57 = private unnamed_addr constant [18 x i8] c"StartCdataSection\00", align 1

; Function Attrs: alwaysinline nounwind uwtable
define internal i32 @_Py_IsImmortal(ptr noundef %0) #5 {
  %2 = alloca ptr, align 8
  store ptr %0, ptr %2, align 8, !tbaa !3
  %3 = load ptr, ptr %2, align 8, !tbaa !3
  %4 = getelementptr inbounds nuw %struct._object, ptr %3, i32 0, i32 0
  %5 = getelementptr inbounds nuw %struct.anon, ptr %4, i32 0, i32 0
  %6 = load i32, ptr %5, align 8, !tbaa !49
  %7 = icmp slt i32 %6, 0
  %8 = zext i1 %7 to i32
  ret i32 %8
}

; Function Attrs: nounwind uwtable
define internal void @clear_handlers(ptr noundef %0, i32 noundef %1) #0 {
  %3 = alloca ptr, align 8
  %4 = alloca i32, align 4
  %5 = alloca i32, align 4
  %6 = alloca ptr, align 8
  %7 = alloca ptr, align 8
  store ptr %0, ptr %3, align 8, !tbaa !8
  store i32 %1, ptr %4, align 4, !tbaa !12
  call void @llvm.lifetime.start.p0(i64 4, ptr %5) #7
  store i32 0, ptr %5, align 4, !tbaa !12
  br label %8

8:                                                ; preds = %52, %2
  %9 = load i32, ptr %5, align 4, !tbaa !12
  %10 = sext i32 %9 to i64
  %11 = getelementptr [64 x %struct.HandlerInfo], ptr @handler_info, i64 0, i64 %10
  %12 = getelementptr inbounds nuw %struct.HandlerInfo, ptr %11, i32 0, i32 0
  %13 = load ptr, ptr %12, align 16, !tbaa !50
  %14 = icmp ne ptr %13, null
  br i1 %14, label %15, label %55

15:                                               ; preds = %8
  %16 = load i32, ptr %4, align 4, !tbaa !12
  %17 = icmp ne i32 %16, 0
  br i1 %17, label %18, label %25

18:                                               ; preds = %15
  %19 = load ptr, ptr %3, align 8, !tbaa !8
  %20 = getelementptr inbounds nuw %struct.xmlparseobject, ptr %19, i32 0, i32 11
  %21 = load ptr, ptr %20, align 8, !tbaa !45
  %22 = load i32, ptr %5, align 4, !tbaa !12
  %23 = sext i32 %22 to i64
  %24 = getelementptr ptr, ptr %21, i64 %23
  store ptr null, ptr %24, align 8, !tbaa !3
  br label %51

25:                                               ; preds = %15
  br label %26

26:                                               ; preds = %25
  call void @llvm.lifetime.start.p0(i64 8, ptr %6) #7
  %27 = load ptr, ptr %3, align 8, !tbaa !8
  %28 = getelementptr inbounds nuw %struct.xmlparseobject, ptr %27, i32 0, i32 11
  %29 = load ptr, ptr %28, align 8, !tbaa !45
  %30 = load i32, ptr %5, align 4, !tbaa !12
  %31 = sext i32 %30 to i64
  %32 = getelementptr ptr, ptr %29, i64 %31
  store ptr %32, ptr %6, align 8, !tbaa !19
  call void @llvm.lifetime.start.p0(i64 8, ptr %7) #7
  %33 = load ptr, ptr %6, align 8, !tbaa !19
  %34 = load ptr, ptr %33, align 8, !tbaa !3
  store ptr %34, ptr %7, align 8, !tbaa !3
  %35 = load ptr, ptr %7, align 8, !tbaa !3
  %36 = icmp ne ptr %35, null
  br i1 %36, label %37, label %40

37:                                               ; preds = %26
  %38 = load ptr, ptr %6, align 8, !tbaa !19
  store ptr null, ptr %38, align 8, !tbaa !3
  %39 = load ptr, ptr %7, align 8, !tbaa !3
  call void @Py_DECREF(ptr noundef %39)
  br label %40

40:                                               ; preds = %37, %26
  call void @llvm.lifetime.end.p0(i64 8, ptr %7) #7
  call void @llvm.lifetime.end.p0(i64 8, ptr %6) #7
  br label %41

41:                                               ; preds = %40
  br label %42

42:                                               ; preds = %41
  %43 = load i32, ptr %5, align 4, !tbaa !12
  %44 = sext i32 %43 to i64
  %45 = getelementptr [64 x %struct.HandlerInfo], ptr @handler_info, i64 0, i64 %44
  %46 = getelementptr inbounds nuw %struct.HandlerInfo, ptr %45, i32 0, i32 1
  %47 = load ptr, ptr %46, align 8, !tbaa !60
  %48 = load ptr, ptr %3, align 8, !tbaa !8
  %49 = getelementptr inbounds nuw %struct.xmlparseobject, ptr %48, i32 0, i32 1
  %50 = load ptr, ptr %49, align 8, !tbaa !48
  call void %47(ptr noundef %50, ptr noundef null)
  br label %51

51:                                               ; preds = %42, %18
  br label %52

52:                                               ; preds = %51
  %53 = load i32, ptr %5, align 4, !tbaa !12
  %54 = add i32 %53, 1
  store i32 %54, ptr %5, align 4, !tbaa !12
  br label %8, !llvm.loop !61

55:                                               ; preds = %8
  call void @llvm.lifetime.end.p0(i64 4, ptr %5) #7
  ret void
}

; Function Attrs: alwaysinline nounwind uwtable
define internal void @Py_DECREF(ptr noundef %0) #5 {
  %2 = alloca ptr, align 8
  store ptr %0, ptr %2, align 8, !tbaa !3
  %3 = load ptr, ptr %2, align 8, !tbaa !3
  %4 = call i32 @_Py_IsImmortal(ptr noundef %3)
  %5 = icmp ne i32 %4, 0
  br i1 %5, label %6, label %7

6:                                                ; preds = %1
  br label %16

7:                                                ; preds = %1
  %8 = load ptr, ptr %2, align 8, !tbaa !3
  %9 = getelementptr inbounds nuw %struct._object, ptr %8, i32 0, i32 0
  %10 = getelementptr inbounds nuw %struct.anon, ptr %9, i32 0, i32 0
  %11 = load i32, ptr %10, align 8, !tbaa !49
  %12 = add i32 %11, -1
  store i32 %12, ptr %10, align 8, !tbaa !49
  %13 = icmp eq i32 %12, 0
  br i1 %13, label %14, label %16

14:                                               ; preds = %7
  %15 = load ptr, ptr %2, align 8, !tbaa !3
  call void @_Py_Dealloc(ptr noundef %15)
  br label %16

16:                                               ; preds = %6, %14, %7
  ret void
}

; Function Attrs: nounwind uwtable
define internal ptr @call_with_frame(ptr noundef %0, i32 noundef %1, ptr noundef %2, ptr noundef %3, ptr noundef %4) #0 {
  %6 = alloca ptr, align 8
  %7 = alloca i32, align 4
  %8 = alloca ptr, align 8
  %9 = alloca ptr, align 8
  %10 = alloca ptr, align 8
  %11 = alloca ptr, align 8
  store ptr %0, ptr %6, align 8, !tbaa !23
  store i32 %1, ptr %7, align 4, !tbaa !12
  store ptr %2, ptr %8, align 8, !tbaa !3
  store ptr %3, ptr %9, align 8, !tbaa !3
  store ptr %4, ptr %10, align 8, !tbaa !8
  call void @llvm.lifetime.start.p0(i64 8, ptr %11) #7
  %12 = load ptr, ptr %8, align 8, !tbaa !3
  %13 = load ptr, ptr %9, align 8, !tbaa !3
  %14 = call ptr @PyObject_Call(ptr noundef %12, ptr noundef %13, ptr noundef null)
  store ptr %14, ptr %11, align 8, !tbaa !3
  %15 = load ptr, ptr %11, align 8, !tbaa !3
  %16 = icmp eq ptr %15, null
  br i1 %16, label %17, label %24

17:                                               ; preds = %5
  %18 = load ptr, ptr %6, align 8, !tbaa !23
  %19 = load i32, ptr %7, align 4, !tbaa !12
  call void @_PyTraceback_Add(ptr noundef %18, ptr noundef @.str.43, i32 noundef %19)
  %20 = load ptr, ptr %10, align 8, !tbaa !8
  %21 = getelementptr inbounds nuw %struct.xmlparseobject, ptr %20, i32 0, i32 1
  %22 = load ptr, ptr %21, align 8, !tbaa !48
  %23 = call i32 @PyExpat_XML_StopParser(ptr noundef %22, i8 noundef zeroext 0)
  br label %24

24:                                               ; preds = %17, %5
  %25 = load ptr, ptr %11, align 8, !tbaa !3
  call void @llvm.lifetime.end.p0(i64 8, ptr %11) #7
  ret ptr %25
}

; Function Attrs: nounwind uwtable
define internal void @flag_error(ptr noundef %0) #0 {
  %2 = alloca ptr, align 8
  store ptr %0, ptr %2, align 8, !tbaa !8
  %3 = load ptr, ptr %2, align 8, !tbaa !8
  call void @clear_handlers(ptr noundef %3, i32 noundef 0)
  %4 = load ptr, ptr %2, align 8, !tbaa !8
  %5 = getelementptr inbounds nuw %struct.xmlparseobject, ptr %4, i32 0, i32 1
  %6 = load ptr, ptr %5, align 8, !tbaa !48
  call void @PyExpat_XML_SetExternalEntityRefHandler(ptr noundef %6, ptr noundef @error_external_entity_ref_handler)
  ret void
}

; Function Attrs: nounwind uwtable
define internal i32 @flush_character_buffer(ptr noundef %0) #0 {
  %2 = alloca i32, align 4
  %3 = alloca ptr, align 8
  %4 = alloca i32, align 4
  %5 = alloca i32, align 4
  store ptr %0, ptr %3, align 8, !tbaa !8
  call void @llvm.lifetime.start.p0(i64 4, ptr %4) #7
  %6 = load ptr, ptr %3, align 8, !tbaa !8
  %7 = getelementptr inbounds nuw %struct.xmlparseobject, ptr %6, i32 0, i32 6
  %8 = load ptr, ptr %7, align 8, !tbaa !35
  %9 = icmp eq ptr %8, null
  br i1 %9, label %15, label %10

10:                                               ; preds = %1
  %11 = load ptr, ptr %3, align 8, !tbaa !8
  %12 = getelementptr inbounds nuw %struct.xmlparseobject, ptr %11, i32 0, i32 8
  %13 = load i32, ptr %12, align 4, !tbaa !40
  %14 = icmp eq i32 %13, 0
  br i1 %14, label %15, label %16

15:                                               ; preds = %10, %1
  store i32 0, ptr %2, align 4
  store i32 1, ptr %5, align 4
  br label %28

16:                                               ; preds = %10
  %17 = load ptr, ptr %3, align 8, !tbaa !8
  %18 = load ptr, ptr %3, align 8, !tbaa !8
  %19 = getelementptr inbounds nuw %struct.xmlparseobject, ptr %18, i32 0, i32 6
  %20 = load ptr, ptr %19, align 8, !tbaa !35
  %21 = load ptr, ptr %3, align 8, !tbaa !8
  %22 = getelementptr inbounds nuw %struct.xmlparseobject, ptr %21, i32 0, i32 8
  %23 = load i32, ptr %22, align 4, !tbaa !40
  %24 = call i32 @call_character_handler(ptr noundef %17, ptr noundef %20, i32 noundef %23)
  store i32 %24, ptr %4, align 4, !tbaa !12
  %25 = load ptr, ptr %3, align 8, !tbaa !8
  %26 = getelementptr inbounds nuw %struct.xmlparseobject, ptr %25, i32 0, i32 8
  store i32 0, ptr %26, align 4, !tbaa !40
  %27 = load i32, ptr %4, align 4, !tbaa !12
  store i32 %27, ptr %2, align 4
  store i32 1, ptr %5, align 4
  br label %28

28:                                               ; preds = %16, %15
  call void @llvm.lifetime.end.p0(i64 4, ptr %4) #7
  %29 = load i32, ptr %2, align 4
  ret i32 %29
}

; Function Attrs: nounwind uwtable
define internal i32 @have_handler(ptr noundef %0, i32 noundef %1) #0 {
  %3 = alloca ptr, align 8
  %4 = alloca i32, align 4
  %5 = alloca ptr, align 8
  store ptr %0, ptr %3, align 8, !tbaa !8
  store i32 %1, ptr %4, align 4, !tbaa !12
  call void @llvm.lifetime.start.p0(i64 8, ptr %5) #7
  %6 = load ptr, ptr %3, align 8, !tbaa !8
  %7 = getelementptr inbounds nuw %struct.xmlparseobject, ptr %6, i32 0, i32 11
  %8 = load ptr, ptr %7, align 8, !tbaa !45
  %9 = load i32, ptr %4, align 4, !tbaa !12
  %10 = sext i32 %9 to i64
  %11 = getelementptr ptr, ptr %8, i64 %10
  %12 = load ptr, ptr %11, align 8, !tbaa !3
  store ptr %12, ptr %5, align 8, !tbaa !3
  %13 = load ptr, ptr %5, align 8, !tbaa !3
  %14 = icmp ne ptr %13, null
  %15 = zext i1 %14 to i32
  call void @llvm.lifetime.end.p0(i64 8, ptr %5) #7
  ret i32 %15
}

; Function Attrs: nounwind uwtable
define internal void @my_StartCdataSectionHandler(ptr noundef %0) #0 {
  %2 = alloca ptr, align 8
  %3 = alloca ptr, align 8
  %4 = alloca ptr, align 8
  %5 = alloca ptr, align 8
  %6 = alloca i32, align 4
  store ptr %0, ptr %2, align 8, !tbaa !8
  call void @llvm.lifetime.start.p0(i64 8, ptr %3) #7
  %7 = load ptr, ptr %2, align 8, !tbaa !8
  store ptr %7, ptr %3, align 8, !tbaa !8
  call void @llvm.lifetime.start.p0(i64 8, ptr %4) #7
  store ptr null, ptr %4, align 8, !tbaa !3
  call void @llvm.lifetime.start.p0(i64 8, ptr %5) #7
  store ptr null, ptr %5, align 8, !tbaa !3
  %8 = load ptr, ptr %3, align 8, !tbaa !8
  %9 = call i32 @have_handler(ptr noundef %8, i32 noundef 9)
  %10 = icmp ne i32 %9, 0
  br i1 %10, label %11, label %46

11:                                               ; preds = %1
  %12 = call ptr @PyErr_Occurred()
  %13 = icmp ne ptr %12, null
  br i1 %13, label %14, label %15

14:                                               ; preds = %11
  store i32 1, ptr %6, align 4
  br label %47

15:                                               ; preds = %11
  %16 = load ptr, ptr %3, align 8, !tbaa !8
  %17 = call i32 @flush_character_buffer(ptr noundef %16)
  %18 = icmp slt i32 %17, 0
  br i1 %18, label %19, label %20

19:                                               ; preds = %15
  store i32 1, ptr %6, align 4
  br label %47

20:                                               ; preds = %15
  %21 = call ptr (ptr, ...) @Py_BuildValue(ptr noundef @.str.56)
  store ptr %21, ptr %4, align 8, !tbaa !3
  %22 = load ptr, ptr %4, align 8, !tbaa !3
  %23 = icmp ne ptr %22, null
  br i1 %23, label %26, label %24

24:                                               ; preds = %20
  %25 = load ptr, ptr %3, align 8, !tbaa !8
  call void @flag_error(ptr noundef %25)
  store i32 1, ptr %6, align 4
  br label %47

26:                                               ; preds = %20
  %27 = load ptr, ptr %3, align 8, !tbaa !8
  %28 = getelementptr inbounds nuw %struct.xmlparseobject, ptr %27, i32 0, i32 4
  store i32 1, ptr %28, align 8, !tbaa !43
  %29 = load ptr, ptr %3, align 8, !tbaa !8
  %30 = getelementptr inbounds nuw %struct.xmlparseobject, ptr %29, i32 0, i32 11
  %31 = load ptr, ptr %30, align 8, !tbaa !45
  %32 = getelementptr ptr, ptr %31, i64 9
  %33 = load ptr, ptr %32, align 8, !tbaa !3
  %34 = load ptr, ptr %4, align 8, !tbaa !3
  %35 = load ptr, ptr %3, align 8, !tbaa !8
  %36 = call ptr @call_with_frame(ptr noundef @.str.57, i32 noundef 645, ptr noundef %33, ptr noundef %34, ptr noundef %35)
  store ptr %36, ptr %5, align 8, !tbaa !3
  %37 = load ptr, ptr %3, align 8, !tbaa !8
  %38 = getelementptr inbounds nuw %struct.xmlparseobject, ptr %37, i32 0, i32 4
  store i32 0, ptr %38, align 8, !tbaa !43
  %39 = load ptr, ptr %4, align 8, !tbaa !3
  call void @Py_DECREF(ptr noundef %39)
  %40 = load ptr, ptr %5, align 8, !tbaa !3
  %41 = icmp eq ptr %40, null
  br i1 %41, label %42, label %44

42:                                               ; preds = %26
  %43 = load ptr, ptr %3, align 8, !tbaa !8
  call void @flag_error(ptr noundef %43)
  store i32 1, ptr %6, align 4
  br label %47

44:                                               ; preds = %26
  %45 = load ptr, ptr %5, align 8, !tbaa !3
  call void @Py_DECREF(ptr noundef %45)
  br label %46

46:                                               ; preds = %44, %1
  store i32 1, ptr %6, align 4
  br label %47

47:                                               ; preds = %46, %42, %24, %19, %14
  call void @llvm.lifetime.end.p0(i64 8, ptr %5) #7
  call void @llvm.lifetime.end.p0(i64 8, ptr %4) #7
  call void @llvm.lifetime.end.p0(i64 8, ptr %3) #7
  ret void
}