; Function Attrs: nounwind uwtable
define internal void @my_StartCdataSectionHandler(ptr noundef captures(none) %0) #0 {
  %2 = getelementptr i8, ptr %0, i64 72
  %.val = load ptr, ptr %2, align 8, !tbaa !36
  %3 = getelementptr i8, ptr %.val, i64 72
  %4 = load ptr, ptr %3, align 8, !tbaa !14
  %.not30 = icmp eq ptr %4, null
  br i1 %.not30, label %Py_DECREF.exit, label %5

5:                                                ; preds = %1
  %6 = tail call ptr @PyErr_Occurred() #8
  %.not15 = icmp eq ptr %6, null
  br i1 %.not15, label %7, label %Py_DECREF.exit

7:                                                ; preds = %5
  %8 = getelementptr inbounds nuw i8, ptr %0, i64 40
  %9 = load ptr, ptr %8, align 8, !tbaa !29
  %10 = icmp eq ptr %9, null
  br i1 %10, label %flush_character_buffer.exit.thread, label %11

11:                                               ; preds = %7
  %12 = getelementptr inbounds nuw i8, ptr %0, i64 52
  %13 = load i32, ptr %12, align 4, !tbaa !35
  %14 = icmp eq i32 %13, 0
  br i1 %14, label %flush_character_buffer.exit.thread, label %flush_character_buffer.exit

flush_character_buffer.exit:                      ; preds = %11
  %15 = tail call fastcc i32 @call_character_handler(ptr noundef nonnull %0, ptr noundef nonnull %9, i32 noundef %13)
  store i32 0, ptr %12, align 4, !tbaa !35
  %16 = icmp slt i32 %15, 0
  br i1 %16, label %Py_DECREF.exit, label %flush_character_buffer.exit.thread

flush_character_buffer.exit.thread:               ; preds = %7, %11, %flush_character_buffer.exit
  %17 = tail call ptr (ptr, ...) @Py_BuildValue(ptr noundef nonnull @.str.56) #8
  %.not16 = icmp eq ptr %17, null
  br i1 %.not16, label %18, label %41

18:                                               ; preds = %flush_character_buffer.exit.thread
  %19 = load ptr, ptr @handler_info, align 16, !tbaa !40
  %.not15.i.i = icmp eq ptr %19, null
  br i1 %.not15.i.i, label %flag_error.exit, label %.lr.ph.i.i

.lr.ph.i.i:                                       ; preds = %18
  %20 = getelementptr inbounds nuw i8, ptr %0, i64 16
  br label %.lr.ph.split.us.i.i

.lr.ph.split.us.i.i:                              ; preds = %Py_DECREF.exit.us.i.i, %.lr.ph.i.i
  %21 = phi ptr [ %37, %Py_DECREF.exit.us.i.i ], [ @handler_info, %.lr.ph.i.i ]
  %22 = phi i64 [ %36, %Py_DECREF.exit.us.i.i ], [ 0, %.lr.ph.i.i ]
  %.016.us.i.i = phi i32 [ %35, %Py_DECREF.exit.us.i.i ], [ 0, %.lr.ph.i.i ]
  %23 = load ptr, ptr %2, align 8, !tbaa !36
  %24 = getelementptr ptr, ptr %23, i64 %22
  %25 = load ptr, ptr %24, align 8, !tbaa !14
  %.not14.us.i.i = icmp eq ptr %25, null
  br i1 %.not14.us.i.i, label %Py_DECREF.exit.us.i.i, label %26

26:                                               ; preds = %.lr.ph.split.us.i.i
  store ptr null, ptr %24, align 8, !tbaa !14
  %27 = load i32, ptr %25, align 8, !tbaa !13
  %.not.i.us.i.i = icmp sgt i32 %27, -1
  br i1 %.not.i.us.i.i, label %28, label %Py_DECREF.exit.us.i.i

28:                                               ; preds = %26
  %29 = add nsw i32 %27, -1
  store i32 %29, ptr %25, align 8, !tbaa !13
  %30 = icmp eq i32 %29, 0
  br i1 %30, label %31, label %Py_DECREF.exit.us.i.i

31:                                               ; preds = %28
  tail call void @_Py_Dealloc(ptr noundef nonnull %25) #8
  br label %Py_DECREF.exit.us.i.i

Py_DECREF.exit.us.i.i:                            ; preds = %31, %28, %26, %.lr.ph.split.us.i.i
  %32 = getelementptr inbounds nuw i8, ptr %21, i64 8
  %33 = load ptr, ptr %32, align 8, !tbaa !56
  %34 = load ptr, ptr %20, align 8, !tbaa !39
  tail call void %33(ptr noundef %34, ptr noundef null) #8
  %35 = add i32 %.016.us.i.i, 1
  %36 = sext i32 %35 to i64
  %37 = getelementptr [64 x %struct.HandlerInfo], ptr @handler_info, i64 0, i64 %36
  %38 = load ptr, ptr %37, align 16, !tbaa !40
  %.not.us.i.i = icmp eq ptr %38, null
  br i1 %.not.us.i.i, label %flag_error.exit, label %.lr.ph.split.us.i.i, !llvm.loop !45

flag_error.exit:                                  ; preds = %Py_DECREF.exit.us.i.i, %18
  %39 = getelementptr inbounds nuw i8, ptr %0, i64 16
  %40 = load ptr, ptr %39, align 8, !tbaa !39
  tail call void @PyExpat_XML_SetExternalEntityRefHandler(ptr noundef %40, ptr noundef nonnull @error_external_entity_ref_handler) #8
  br label %Py_DECREF.exit

41:                                               ; preds = %flush_character_buffer.exit.thread
  %42 = getelementptr inbounds nuw i8, ptr %0, i64 32
  store i32 1, ptr %42, align 8, !tbaa !60
  %43 = load ptr, ptr %2, align 8, !tbaa !36
  %44 = getelementptr i8, ptr %43, i64 72
  %45 = load ptr, ptr %44, align 8, !tbaa !14
  %46 = tail call ptr @PyObject_Call(ptr noundef %45, ptr noundef nonnull %17, ptr noundef null) #8
  %47 = icmp eq ptr %46, null
  br i1 %47, label %48, label %call_with_frame.exit

48:                                               ; preds = %41
  tail call void @_PyTraceback_Add(ptr noundef nonnull @.str.57, ptr noundef nonnull @.str.43, i32 noundef 645) #8
  %49 = getelementptr inbounds nuw i8, ptr %0, i64 16
  %50 = load ptr, ptr %49, align 8, !tbaa !39
  %51 = tail call i32 @PyExpat_XML_StopParser(ptr noundef %50, i8 noundef zeroext 0) #8
  br label %call_with_frame.exit

call_with_frame.exit:                             ; preds = %41, %48
  store i32 0, ptr %42, align 8, !tbaa !60
  %52 = load i32, ptr %17, align 8, !tbaa !13
  %.not.i17 = icmp sgt i32 %52, -1
  br i1 %.not.i17, label %53, label %Py_DECREF.exit18

53:                                               ; preds = %call_with_frame.exit
  %54 = add nsw i32 %52, -1
  store i32 %54, ptr %17, align 8, !tbaa !13
  %55 = icmp eq i32 %54, 0
  br i1 %55, label %56, label %Py_DECREF.exit18

56:                                               ; preds = %53
  tail call void @_Py_Dealloc(ptr noundef nonnull %17) #8
  br label %Py_DECREF.exit18

Py_DECREF.exit18:                                 ; preds = %call_with_frame.exit, %53, %56
  br i1 %47, label %57, label %80

57:                                               ; preds = %Py_DECREF.exit18
  %58 = load ptr, ptr @handler_info, align 16, !tbaa !40
  %.not15.i.i20 = icmp eq ptr %58, null
  br i1 %.not15.i.i20, label %flag_error.exit28, label %.lr.ph.i.i21

.lr.ph.i.i21:                                     ; preds = %57
  %59 = getelementptr inbounds nuw i8, ptr %0, i64 16
  br label %.lr.ph.split.us.i.i22

.lr.ph.split.us.i.i22:                            ; preds = %Py_DECREF.exit.us.i.i26, %.lr.ph.i.i21
  %60 = phi ptr [ %76, %Py_DECREF.exit.us.i.i26 ], [ @handler_info, %.lr.ph.i.i21 ]
  %61 = phi i64 [ %75, %Py_DECREF.exit.us.i.i26 ], [ 0, %.lr.ph.i.i21 ]
  %.016.us.i.i23 = phi i32 [ %74, %Py_DECREF.exit.us.i.i26 ], [ 0, %.lr.ph.i.i21 ]
  %62 = load ptr, ptr %2, align 8, !tbaa !36
  %63 = getelementptr ptr, ptr %62, i64 %61
  %64 = load ptr, ptr %63, align 8, !tbaa !14
  %.not14.us.i.i24 = icmp eq ptr %64, null
  br i1 %.not14.us.i.i24, label %Py_DECREF.exit.us.i.i26, label %65

65:                                               ; preds = %.lr.ph.split.us.i.i22
  store ptr null, ptr %63, align 8, !tbaa !14
  %66 = load i32, ptr %64, align 8, !tbaa !13
  %.not.i.us.i.i25 = icmp sgt i32 %66, -1
  br i1 %.not.i.us.i.i25, label %67, label %Py_DECREF.exit.us.i.i26

67:                                               ; preds = %65
  %68 = add nsw i32 %66, -1
  store i32 %68, ptr %64, align 8, !tbaa !13
  %69 = icmp eq i32 %68, 0
  br i1 %69, label %70, label %Py_DECREF.exit.us.i.i26

70:                                               ; preds = %67
  tail call void @_Py_Dealloc(ptr noundef nonnull %64) #8
  br label %Py_DECREF.exit.us.i.i26

Py_DECREF.exit.us.i.i26:                          ; preds = %70, %67, %65, %.lr.ph.split.us.i.i22
  %71 = getelementptr inbounds nuw i8, ptr %60, i64 8
  %72 = load ptr, ptr %71, align 8, !tbaa !56
  %73 = load ptr, ptr %59, align 8, !tbaa !39
  tail call void %72(ptr noundef %73, ptr noundef null) #8
  %74 = add i32 %.016.us.i.i23, 1
  %75 = sext i32 %74 to i64
  %76 = getelementptr [64 x %struct.HandlerInfo], ptr @handler_info, i64 0, i64 %75
  %77 = load ptr, ptr %76, align 16, !tbaa !40
  %.not.us.i.i27 = icmp eq ptr %77, null
  br i1 %.not.us.i.i27, label %flag_error.exit28, label %.lr.ph.split.us.i.i22, !llvm.loop !45

flag_error.exit28:                                ; preds = %Py_DECREF.exit.us.i.i26, %57
  %78 = getelementptr inbounds nuw i8, ptr %0, i64 16
  %79 = load ptr, ptr %78, align 8, !tbaa !39
  tail call void @PyExpat_XML_SetExternalEntityRefHandler(ptr noundef %79, ptr noundef nonnull @error_external_entity_ref_handler) #8
  br label %Py_DECREF.exit

80:                                               ; preds = %Py_DECREF.exit18
  %81 = load i32, ptr %46, align 8, !tbaa !13
  %.not.i = icmp sgt i32 %81, -1
  br i1 %.not.i, label %82, label %Py_DECREF.exit

82:                                               ; preds = %80
  %83 = add nsw i32 %81, -1
  store i32 %83, ptr %46, align 8, !tbaa !13
  %84 = icmp eq i32 %83, 0
  br i1 %84, label %85, label %Py_DECREF.exit

85:                                               ; preds = %82
  tail call void @_Py_Dealloc(ptr noundef nonnull %46) #8
  br label %Py_DECREF.exit

Py_DECREF.exit:                                   ; preds = %85, %82, %80, %1, %flush_character_buffer.exit, %5, %flag_error.exit28, %flag_error.exit
  ret void
}